target datalayout = "e-m:e-p270:32:32-p271:32:32-p272:64:64-i64:64-i128:128-f80:128-n8:16:32:64-S128"
target triple = "x86_64-pc-linux-gnu"

%struct.OSSL_TIME = type { i64 }
%struct.ssl_session_st = type { i32, i64, [64 x i8], [512 x i8], i64, [32 x i8], i64, [32 x i8], ptr, ptr, i32, ptr, ptr, ptr, i64, %struct.OSSL_TIME, %struct.OSSL_TIME, %struct.OSSL_TIME, i32, ptr, i64, i32, %struct.crypto_ex_data_st, %struct.anon, ptr, ptr, i64, i32, ptr, ptr, ptr, %struct.CRYPTO_REF_COUNT }
%struct.crypto_ex_data_st = type { ptr, ptr }
%struct.anon = type { ptr, ptr, i64, i64, i32, i32, ptr, i64, i8 }
%struct.CRYPTO_REF_COUNT = type { i32 }

@.str = private unnamed_addr constant [26 x i8] c"../openssl/ssl/ssl_sess.c\00", align 1

; Function Attrs: nounwind uwtable
define i32 @SSL_SESSION_set1_ticket_appdata(ptr noundef %0, ptr noundef %1, i64 noundef %2) #0 {
  %4 = alloca i32, align 4
  %5 = alloca ptr, align 8
  %6 = alloca ptr, align 8
  %7 = alloca i64, align 8
  store ptr %0, ptr %5, align 8, !tbaa !3
  store ptr %1, ptr %6, align 8, !tbaa !78
  store i64 %2, ptr %7, align 8, !tbaa !9
  %8 = load ptr, ptr %5, align 8, !tbaa !3
  %9 = getelementptr inbounds nuw %struct.ssl_session_st, ptr %8, i32 0, i32 25
  %10 = load ptr, ptr %9, align 8, !tbaa !93
  call void @CRYPTO_free(ptr noundef %10, ptr noundef @.str, i32 noundef 1422)
  %11 = load ptr, ptr %5, align 8, !tbaa !3
  %12 = getelementptr inbounds nuw %struct.ssl_session_st, ptr %11, i32 0, i32 26
  store i64 0, ptr %12, align 8, !tbaa !100
  %13 = load ptr, ptr %6, align 8, !tbaa !78
  %14 = icmp eq ptr %13, null
  br i1 %14, label %18, label %15

15:                                               ; preds = %3
  %16 = load i64, ptr %7, align 8, !tbaa !9
  %17 = icmp eq i64 %16, 0
  br i1 %17, label %18, label %21

18:                                               ; preds = %15, %3
  %19 = load ptr, ptr %5, align 8, !tbaa !3
  %20 = getelementptr inbounds nuw %struct.ssl_session_st, ptr %19, i32 0, i32 25
  store ptr null, ptr %20, align 8, !tbaa !93
  store i32 1, ptr %4, align 4
  br label %36

21:                                               ; preds = %15
  %22 = load ptr, ptr %6, align 8, !tbaa !78
  %23 = load i64, ptr %7, align 8, !tbaa !9
  %24 = call noalias ptr @CRYPTO_memdup(ptr noundef %22, i64 noundef %23, ptr noundef @.str, i32 noundef 1428)
  %25 = load ptr, ptr %5, align 8, !tbaa !3
  %26 = getelementptr inbounds nuw %struct.ssl_session_st, ptr %25, i32 0, i32 25
  store ptr %24, ptr %26, align 8, !tbaa !93
  %27 = load ptr, ptr %5, align 8, !tbaa !3
  %28 = getelementptr inbounds nuw %struct.ssl_session_st, ptr %27, i32 0, i32 25
  %29 = load ptr, ptr %28, align 8, !tbaa !93
  %30 = icmp ne ptr %29, null
  br i1 %30, label %31, label %35

31:                                               ; preds = %21
  %32 = load i64, ptr %7, align 8, !tbaa !9
  %33 = load ptr, ptr %5, align 8, !tbaa !3
  %34 = getelementptr inbounds nuw %struct.ssl_session_st, ptr %33, i32 0, i32 26
  store i64 %32, ptr %34, align 8, !tbaa !100
  store i32 1, ptr %4, align 4
  br label %36

35:                                               ; preds = %21
  store i32 0, ptr %4, align 4
  br label %36

36:                                               ; preds = %35, %31, %18
  %37 = load i32, ptr %4, align 4
  ret i32 %37
}