; Function Attrs: nounwind uwtable
define range(i32 0, 2) i32 @SSL_SESSION_set1_ticket_appdata(ptr noundef captures(none) initializes((880, 888)) %0, ptr noundef %1, i64 noundef %2) local_unnamed_addr #3 {
  %4 = getelementptr inbounds nuw i8, ptr %0, i64 872
  %5 = load ptr, ptr %4, align 8, !tbaa !88
  tail call void @CRYPTO_free(ptr noundef %5, ptr noundef nonnull @.str, i32 noundef 1422) #11
  %6 = getelementptr inbounds nuw i8, ptr %0, i64 880
  store i64 0, ptr %6, align 8, !tbaa !89
  %7 = icmp eq ptr %1, null
  %8 = icmp eq i64 %2, 0
  %or.cond = or i1 %7, %8
  br i1 %or.cond, label %9, label %10

9:                                                ; preds = %3
  store ptr null, ptr %4, align 8, !tbaa !88
  br label %13

10:                                               ; preds = %3
  %11 = tail call noalias ptr @CRYPTO_memdup(ptr noundef nonnull %1, i64 noundef %2, ptr noundef nonnull @.str, i32 noundef 1428) #11
  store ptr %11, ptr %4, align 8, !tbaa !88
  %.not = icmp eq ptr %11, null
  br i1 %.not, label %13, label %12

12:                                               ; preds = %10
  store i64 %2, ptr %6, align 8, !tbaa !89
  br label %13

13:                                               ; preds = %10, %12, %9
  %.0 = phi i32 [ 1, %9 ], [ 1, %12 ], [ 0, %10 ]
  ret i32 %.0
}